(lp1
ccopy_reg
_reconstructor
p2
(csqlalchemy.util._collections
KeyedTuple
p3
c__builtin__
tuple
p4
(L1L
VEMAIL_HOST
p5
V\u0421\u0435\u0440\u0432\u0435\u0440 \u0438\u0441\u0445\u043e\u0434\u044f\u0449\u0435\u0439 \u043f\u043e\u0447\u0442\u044b
p6
Vsmtp.googlemail.com
p7
Vstring
p8
ttRp9
(dp10
S'_labels'
p11
(S'id'
p12
S'code'
p13
S'name'
p14
S'value'
p15
S'value_type'
p16
tp17
sg13
g5
sg14
g6
sg15
g7
sg16
g8
sg12
L1L
sbag2
(g3
g4
(L2L
VEMAIL_PORT
p18
V\u041f\u043e\u0440\u0442 \u0434\u043b\u044f \u0438\u0441\u0445\u043e\u0434\u044f\u0449\u0435\u0439 \u043f\u043e\u0447\u0442\u044b
p19
V465
p20
Vnumber
p21
ttRp22
(dp23
g11
g17
sg13
g18
sg14
g19
sg15
g20
sg16
g21
sg12
L2L
sbag2
(g3
g4
(L3L
VEMAIL_HOST_USER
p24
V\u041b\u043e\u0433\u0438\u043d \u0434\u043b\u044f \u0430\u0432\u0442\u043e\u0440\u0438\u0437\u0430\u0446\u0438\u0438 \u043d\u0430 \u043f\u043e\u0447\u0442\u043e\u0432\u043e\u043c \u0441\u0435\u0440\u0432\u0435\u0440\u0435
p25
Vkorusit.test@gmail.com
p26
Vstring
p27
ttRp28
(dp29
g11
g17
sg13
g24
sg14
g25
sg15
g26
sg16
g27
sg12
L3L
sbag2
(g3
g4
(L4L
VEMAIL_HOST_PASSWORD
p30
V\u041f\u0430\u0440\u043e\u043b\u044c \u0434\u043b\u044f \u0430\u0432\u0442\u043e\u0440\u0438\u0437\u0430\u0446\u0438\u0438 \u043d\u0430 \u043f\u043e\u0447\u0442\u043e\u0432\u043e\u043c \u0441\u0435\u0440\u0432\u0435\u0440\u0435
p31
Vkorusitkorusit
p32
Vstring
p33
ttRp34
(dp35
g11
g17
sg13
g30
sg14
g31
sg15
g32
sg16
g33
sg12
L4L
sbag2
(g3
g4
(L5L
VEMAIL_USE_TLS
p36
V\u0418\u0441\u043f\u043e\u043b\u044c\u0437\u043e\u0432\u0430\u0442\u044c \u0437\u0430\u0449\u0438\u0449\u0435\u043d\u043d\u044b\u0439 \u043f\u0440\u043e\u0442\u043e\u043a\u043e\u043b TLS
p37
V
Vbool
p38
ttRp39
(dp40
g11
g17
sg13
g36
sg14
g37
sg15
V
sg16
g38
sg12
L5L
sbag2
(g3
g4
(L6L
VEMAIL_USE_SSL
p41
V\u0418\u0441\u043f\u043e\u043b\u044c\u0437\u043e\u0432\u0430\u0442\u044c \u0437\u0430\u0449\u0438\u0449\u0435\u043d\u043d\u044b\u0439 \u043f\u0440\u043e\u0442\u043e\u043a\u043e\u043b SSL
p42
V1
Vbool
p43
ttRp44
(dp45
g11
g17
sg13
g41
sg14
g42
sg15
V1
sg16
g43
sg12
L6L
sbag2
(g3
g4
(L7L
VDEFAULT_FROM_EMAIL
p46
VEmail \u0430\u0434\u0440\u0435\u0441, \u0443\u043a\u0430\u0437\u044b\u0432\u0430\u0435\u043c\u044b\u0439 \u0432 \u043f\u043e\u043b\u0435 \u043f\u0438\u0441\u044c\u043c\u0430 "\u041e\u0442 \u043a\u043e\u0433\u043e:"
p47
Vkorusit.test@gmail.com
p48
Vstring
p49
ttRp50
(dp51
g11
g17
sg13
g46
sg14
g47
sg15
g48
sg16
g49
sg12
L7L
sbag2
(g3
g4
(L8L
VTIME_ZONE
p52
V\u0427\u0430\u0441\u043e\u0432\u043e\u0439 \u043f\u043e\u044f\u0441
p53
VEurope/Moscow
p54
Venum
p55
ttRp56
(dp57
g11
g17
sg13
g52
sg14
g53
sg15
g54
sg16
g55
sg12
L8L
sbag2
(g3
g4
(L9L
VSITE_NAME
p58
V\u041d\u0430\u0437\u0432\u0430\u043d\u0438\u0435 \u0441\u0430\u0439\u0442\u0430 \u0432 \u0448\u0430\u043f\u043a\u0443
p59
V\u041f\u043e\u0440\u0442\u0430\u043b \u0433\u043e\u0441\u0443\u0434\u0430\u0440\u0441\u0442\u0432\u0435\u043d\u043d\u044b\u0445 \u0438 \u043c\u0443\u043d\u0438\u0446\u0438\u043f\u0430\u043b\u044c\u043d\u044b\u0445 \u0443\u0441\u043b\u0443\u0433
p60
Vstring
p61
ttRp62
(dp63
g11
g17
sg13
g58
sg14
g59
sg15
g60
sg16
g61
sg12
L9L
sbag2
(g3
g4
(L10L
VREGION_NAME
p64
V\u041d\u0430\u0438\u043c\u0435\u043d\u043e\u0432\u0430\u043d\u0438\u0435 \u0440\u0435\u0433\u0438\u043e\u043d\u0430 \u0432 \u0448\u0430\u043f\u043a\u0443
p65
V
Vstring
p66
ttRp67
(dp68
g11
g17
sg13
g64
sg14
g65
sg15
V
sg16
g66
sg12
L10L
sbag2
(g3
g4
(L11L
VLOGO_FILE
p69
V\u041b\u043e\u0433\u043e\u0442\u0438\u043f/\u0433\u0435\u0440\u0431 \u0440\u0435\u0433\u0438\u043e\u043d\u0430 \u0434\u043b\u044f \u0440\u0430\u0437\u043c\u0435\u0449\u0435\u043d\u0438\u044f \u0432 \u0448\u0430\u043f\u043a\u0435 \u0441\u0442\u0440\u0430\u043d\u0438\u0446
p70
V
Vimage
p71
ttRp72
(dp73
g11
g17
sg13
g69
sg14
g70
sg15
V
sg16
g71
sg12
L11L
sbag2
(g3
g4
(L12L
VHOME_LINK
p74
VURL-\u0430\u0434\u0440\u0435\u0441 (http://example.ru), \u043d\u0430 \u043a\u043e\u0442\u043e\u0440\u044b\u0439 \u0431\u0443\u0434\u0435\u0442 \u043e\u0441\u0443\u0449\u0435\u0441\u0442\u0432\u043b\u044f\u0442\u044c\u0441\u044f \u043f\u0435\u0440\u0435\u0445\u043e\u0434 \u043f\u0440\u0438 \u043a\u043b\u0438\u043a\u0435 \u043d\u0430 \u041b\u043e\u0433\u043e\u0442\u0438\u043f. \u0415\u0441\u043b\u0438 \u043d\u0435 \u0437\u0430\u0434\u0430\u043d - \u043f\u0435\u0440\u0435\u0445\u043e\u0434 \u043d\u0430 \u0433\u043b\u0430\u0432\u043d\u0443\u044e \u0441\u0442\u0440\u0430\u043d\u0438\u0446\u0443 \u041f\u043e\u0440\u0442\u0430\u043b\u0430
p75
V
Vstring
p76
ttRp77
(dp78
g11
g17
sg13
g74
sg14
g75
sg15
V
sg16
g76
sg12
L12L
sbag2
(g3
g4
(L13L
VIS_URL
p79
V\u0410\u0434\u0440\u0435\u0441 \u0438\u043d\u0442\u0435\u0433\u0440\u0430\u0446\u0438\u043e\u043d\u043d\u043e\u0433\u043e \u0441\u0435\u0440\u0432\u0438\u0441\u0430
p80
Vhttp://127.0.0.1:9910/%s/?wsdl
p81
Vstring
p82
ttRp83
(dp84
g11
g17
sg13
g79
sg14
g80
sg15
g81
sg16
g82
sg12
L13L
sba.