(lp1
ccopy_reg
_reconstructor
p2
(csqlalchemy.util._collections
KeyedTuple
p3
c__builtin__
tuple
p4
(L1L
VEMAIL_HOST
p5
V\u0421\u0435\u0440\u0432\u0435\u0440 \u0438\u0441\u0445\u043e\u0434\u044f\u0449\u0435\u0439 \u043f\u043e\u0447\u0442\u044b
p6
Vlocalhost
p7
Vstring
p8
ttRp9
(dp10
S'_labels'
p11
(S'id'
p12
S'code'
p13
S'name'
p14
S'value'
p15
S'value_type'
p16
tp17
sg13
g5
sg14
g6
sg15
g7
sg16
g8
sg12
L1L
sbag2
(g3
g4
(L2L
VEMAIL_PORT
p18
V\u041f\u043e\u0440\u0442 \u0434\u043b\u044f \u0438\u0441\u0445\u043e\u0434\u044f\u0449\u0435\u0439 \u043f\u043e\u0447\u0442\u044b
p19
V1025
p20
Vnumber
p21
ttRp22
(dp23
g11
g17
sg13
g18
sg14
g19
sg15
g20
sg16
g21
sg12
L2L
sbag2
(g3
g4
(L3L
VEMAIL_HOST_USER
p24
V\u041b\u043e\u0433\u0438\u043d \u0434\u043b\u044f \u0430\u0432\u0442\u043e\u0440\u0438\u0437\u0430\u0446\u0438\u0438 \u043d\u0430 \u043f\u043e\u0447\u0442\u043e\u0432\u043e\u043c \u0441\u0435\u0440\u0432\u0435\u0440\u0435
p25
NVstring
p26
ttRp27
(dp28
g11
g17
sg13
g24
sg14
g25
sg15
Nsg16
g26
sg12
L3L
sbag2
(g3
g4
(L4L
VEMAIL_HOST_PASSWORD
p29
V\u041f\u0430\u0440\u043e\u043b\u044c \u0434\u043b\u044f \u0430\u0432\u0442\u043e\u0440\u0438\u0437\u0430\u0446\u0438\u0438 \u043d\u0430 \u043f\u043e\u0447\u0442\u043e\u0432\u043e\u043c \u0441\u0435\u0440\u0432\u0435\u0440\u0435
p30
NVstring
p31
ttRp32
(dp33
g11
g17
sg13
g29
sg14
g30
sg15
Nsg16
g31
sg12
L4L
sbag2
(g3
g4
(L5L
VEMAIL_USE_TLS
p34
V\u0418\u0441\u043f\u043e\u043b\u044c\u0437\u043e\u0432\u0430\u0442\u044c \u0437\u0430\u0449\u0438\u0449\u0435\u043d\u043d\u044b\u0439 \u043f\u0440\u043e\u0442\u043e\u043a\u043e\u043b TLS
p35
VFalse
p36
Vbool
p37
ttRp38
(dp39
g11
g17
sg13
g34
sg14
g35
sg15
g36
sg16
g37
sg12
L5L
sbag2
(g3
g4
(L6L
VDEFAULT_FROM_EMAIL
p40
VEmail \u0430\u0434\u0440\u0435\u0441, \u0443\u043a\u0430\u0437\u044b\u0432\u0430\u0435\u043c\u044b\u0439 \u0432 \u043f\u043e\u043b\u0435 \u043f\u0438\u0441\u044c\u043c\u0430 "\u041e\u0442 \u043a\u043e\u0433\u043e:"
p41
NVstring
p42
ttRp43
(dp44
g11
g17
sg13
g40
sg14
g41
sg15
Nsg16
g42
sg12
L6L
sbag2
(g3
g4
(L7L
VTIME_ZONE
p45
V\u0427\u0430\u0441\u043e\u0432\u043e\u0439 \u043f\u043e\u044f\u0441
p46
VEurope/Moscow
p47
Venum
p48
ttRp49
(dp50
g11
g17
sg13
g45
sg14
g46
sg15
g47
sg16
g48
sg12
L7L
sbag2
(g3
g4
(L8L
VSITE_NAME
p51
V\u041d\u0430\u0437\u0432\u0430\u043d\u0438\u0435 \u0441\u0430\u0439\u0442\u0430 \u0432 \u0448\u0430\u043f\u043a\u0443
p52
V\u041f\u043e\u0440\u0442\u0430\u043b \u0433\u043e\u0441\u0443\u0434\u0430\u0440\u0441\u0442\u0432\u0435\u043d\u043d\u044b\u0445 \u0438 \u043c\u0443\u043d\u0438\u0446\u0438\u043f\u0430\u043b\u044c\u043d\u044b\u0445 \u0443\u0441\u043b\u0443\u0433
p53
Vstring
p54
ttRp55
(dp56
g11
g17
sg13
g51
sg14
g52
sg15
g53
sg16
g54
sg12
L8L
sbag2
(g3
g4
(L9L
VREGION_NAME
p57
V\u041d\u0430\u0438\u043c\u0435\u043d\u043e\u0432\u0430\u043d\u0438\u0435 \u0440\u0435\u0433\u0438\u043e\u043d\u0430 \u0432 \u0448\u0430\u043f\u043a\u0443
p58
NVstring
p59
ttRp60
(dp61
g11
g17
sg13
g57
sg14
g58
sg15
Nsg16
g59
sg12
L9L
sbag2
(g3
g4
(L10L
VLOGO_FILE
p62
V\u041b\u043e\u0433\u043e\u0442\u0438\u043f/\u0433\u0435\u0440\u0431 \u0440\u0435\u0433\u0438\u043e\u043d\u0430 \u0434\u043b\u044f \u0440\u0430\u0437\u043c\u0435\u0449\u0435\u043d\u0438\u044f \u0432 \u0448\u0430\u043f\u043a\u0435 \u0441\u0442\u0440\u0430\u043d\u0438\u0446
p63
NVimage
p64
ttRp65
(dp66
g11
g17
sg13
g62
sg14
g63
sg15
Nsg16
g64
sg12
L10L
sbag2
(g3
g4
(L11L
VHOME_LINK
p67
VURL-\u0430\u0434\u0440\u0435\u0441 (http://example.ru), \u043d\u0430 \u043a\u043e\u0442\u043e\u0440\u044b\u0439 \u0431\u0443\u0434\u0435\u0442 \u043e\u0441\u0443\u0449\u0435\u0441\u0442\u0432\u043b\u044f\u0442\u044c\u0441\u044f \u043f\u0435\u0440\u0435\u0445\u043e\u0434 \u043f\u0440\u0438 \u043a\u043b\u0438\u043a\u0435 \u043d\u0430 \u041b\u043e\u0433\u043e\u0442\u0438\u043f. \u0415\u0441\u043b\u0438 \u043d\u0435 \u0437\u0430\u0434\u0430\u043d - \u043f\u0435\u0440\u0435\u0445\u043e\u0434 \u043d\u0430 \u0433\u043b\u0430\u0432\u043d\u0443\u044e \u0441\u0442\u0440\u0430\u043d\u0438\u0446\u0443 \u041f\u043e\u0440\u0442\u0430\u043b\u0430
p68
NVstring
p69
ttRp70
(dp71
g11
g17
sg13
g67
sg14
g68
sg15
Nsg16
g69
sg12
L11L
sbag2
(g3
g4
(L12L
VIS_URL
p72
V\u0410\u0434\u0440\u0435\u0441 \u0438\u043d\u0442\u0435\u0433\u0440\u0430\u0446\u0438\u043e\u043d\u043d\u043e\u0433\u043e \u0441\u0435\u0440\u0432\u0438\u0441\u0430
p73
Vhttp://127.0.0.1:9910/%s/?wsdl
p74
Vstring
p75
ttRp76
(dp77
g11
g17
sg13
g72
sg14
g73
sg15
g74
sg16
g75
sg12
L12L
sba.