(lp1
ccopy_reg
_reconstructor
p2
(csqlalchemy.util._collections
KeyedTuple
p3
c__builtin__
tuple
p4
(L1L
Vadmin
p5
Vpbkdf2:sha1:1000$z0fCVeVW$881ab07d0f03e4a5651456bdbcdff7a90ccea919
p6
I01
ttRp7
(dp8
S'active'
p9
I01
sS'_labels'
p10
(S'id'
p11
S'login'
p12
S'password'
p13
g9
tp14
sg12
g5
sg13
g6
sg11
L1L
sba.